target datalayout = "e-m:e-p270:32:32-p271:32:32-p272:64:64-i64:64-i128:128-f80:128-n8:16:32:64-S128"
target triple = "x86_64-pc-linux-gnu"

%"class.OopStorage::AllocationListEntry" = type { ptr, ptr }
%"class.OopStorage::Block" = type { [64 x ptr], i64, i64, ptr, i64, %"class.OopStorage::AllocationListEntry", ptr, i64 }

; Function Attrs: mustprogress nounwind uwtable
define linkonce_odr hidden void @_ZNK10OopStorage5Block11check_indexEj(ptr noundef nonnull align 8 dereferenceable(576) %0, i32 noundef %1) #1 comdat align 2 {
  %3 = alloca ptr, align 8
  %4 = alloca i32, align 4
  store ptr %0, ptr %3, align 8
  store i32 %1, ptr %4, align 4
  ret void
}

; Function Attrs: mustprogress nounwind uwtable
define linkonce_odr hidden noundef ptr @_ZNK10OopStorage5Block11get_pointerEj(ptr noundef nonnull align 8 dereferenceable(576) %0, i32 noundef %1) #1 comdat align 2 {
  %3 = alloca ptr, align 8
  %4 = alloca i32, align 4
  store ptr %0, ptr %3, align 8
  store i32 %1, ptr %4, align 4
  %5 = load ptr, ptr %3, align 8
  %6 = load i32, ptr %4, align 4
  call void @_ZNK10OopStorage5Block11check_indexEj(ptr noundef nonnull align 8 dereferenceable(576) %5, i32 noundef %6)
  %7 = getelementptr inbounds %"class.OopStorage::Block", ptr %5, i32 0, i32 0
  %8 = load i32, ptr %4, align 4
  %9 = zext i32 %8 to i64
  %10 = getelementptr inbounds [64 x ptr], ptr %7, i64 0, i64 %9
  ret ptr %10
}

; Function Attrs: mustprogress nounwind uwtable
define linkonce_odr hidden noundef i64 @_ZNK10OopStorage5Block17bitmask_for_indexEj(ptr noundef nonnull align 8 dereferenceable(576) %0, i32 noundef %1) #1 comdat align 2 {
  %3 = alloca ptr, align 8
  %4 = alloca i32, align 4
  store ptr %0, ptr %3, align 8
  store i32 %1, ptr %4, align 4
  %5 = load ptr, ptr %3, align 8
  %6 = load i32, ptr %4, align 4
  call void @_ZNK10OopStorage5Block11check_indexEj(ptr noundef nonnull align 8 dereferenceable(576) %5, i32 noundef %6)
  %7 = load i32, ptr %4, align 4
  %8 = zext i32 %7 to i64
  %9 = shl i64 1, %8
  ret i64 %9
}

; Function Attrs: mustprogress nounwind uwtable
define hidden noundef i32 @_ZNK10OopStorage5Block9get_indexEPKP7oopDesc(ptr noundef nonnull align 8 dereferenceable(576) %0, ptr noundef %1) #1 align 2 {
  %3 = alloca ptr, align 8
  %4 = alloca ptr, align 8
  store ptr %0, ptr %3, align 8
  store ptr %1, ptr %4, align 8
  %5 = load ptr, ptr %3, align 8
  %6 = load ptr, ptr %4, align 8
  %7 = call noundef ptr @_ZNK10OopStorage5Block11get_pointerEj(ptr noundef nonnull align 8 dereferenceable(576) %5, i32 noundef 0)
  %8 = ptrtoint ptr %6 to i64
  %9 = ptrtoint ptr %7 to i64
  %10 = sub i64 %8, %9
  %11 = sdiv exact i64 %10, 8
  %12 = trunc i64 %11 to i32
  ret i32 %12
}

; Function Attrs: mustprogress nounwind uwtable
define hidden noundef i64 @_ZNK10OopStorage5Block17bitmask_for_entryEPKP7oopDesc(ptr noundef nonnull align 8 dereferenceable(576) %0, ptr noundef %1) #1 align 2 {
  %3 = alloca ptr, align 8
  %4 = alloca ptr, align 8
  store ptr %0, ptr %3, align 8
  store ptr %1, ptr %4, align 8
  %5 = load ptr, ptr %3, align 8
  %6 = load ptr, ptr %4, align 8
  %7 = call noundef i32 @_ZNK10OopStorage5Block9get_indexEPKP7oopDesc(ptr noundef nonnull align 8 dereferenceable(576) %5, ptr noundef %6)
  %8 = call noundef i64 @_ZNK10OopStorage5Block17bitmask_for_indexEj(ptr noundef nonnull align 8 dereferenceable(576) %5, i32 noundef %7)
  ret i64 %8
}