; Function Attrs: mustprogress nofree norecurse nosync nounwind willreturn memory(none) uwtable
define hidden noundef i64 @_ZNK10OopStorage5Block17bitmask_for_entryEPKP7oopDesc(ptr noundef nonnull align 8 dereferenceable(576) %0, ptr noundef %1) local_unnamed_addr #1 align 2 {
  %3 = ptrtoint ptr %1 to i64
  %4 = ptrtoint ptr %0 to i64
  %5 = sub i64 %3, %4
  %6 = lshr exact i64 %5, 3
  %7 = and i64 %6, 4294967295
  %8 = shl nuw i64 1, %7
  ret i64 %8
}